(dp0
I1
I38
sI2
I64
sI515
I36
sI516
I104
sI517
I185
sI6
I314
sI519
I147
sI8
I190
sI521
I289
sI10
I263
sI11
I276
sI12
I243
sI514
I128
sI597
I219
sI527
I189
sI529
I234
sI530
I5
sI531
I142
sI20
I278
sI21
I51
sI22
I284
sI23
I218
sI25
I70
sI26
I117
sI540
I33
sI541
I155
sI543
I34
sI32
I236
sI33
I80
sI34
I178
sI35
I91
sI36
I248
sI549
I139
sI553
I163
sI42
I73
sI555
I130
sI44
I19
sI557
I72
sI600
I297
sI559
I210
sI560
I61
sI49
I78
sI563
I27
sI52
I152
sI53
I21
sI54
I194
sI567
I108
sI56
I230
sI570
I95
sI571
I46
sI573
I191
sI62
I25
sI64
I62
sI65
I167
sI66
I83
sI67
I97
sI68
I215
sI69
I45
sI70
I54
sI583
I206
sI584
I42
sI524
I298
sI586
I203
sI587
I6
sI588
I111
sI589
I150
sI590
I125
sI13
I301
sI80
I57
sI81
I253
sI83
I79
sI84
I241
sI85
I182
sI86
I304
sI88
I23
sI89
I103
sI71
I229
sI91
I308
sI92
I16
sI605
I98
sI55
I186
sI95
I113
sI608
I160
sI97
I4
sI98
I40
sI100
I126
sI614
I132
sI102
I20
sI103
I213
sI104
I12
sI105
I316
sI107
I18
sI108
I201
sI113
I15
sI114
I65
sI115
I44
sI118
I14
sI119
I99
sI120
I193
sI121
I11
sI122
I100
sI124
I58
sI125
I29
sI533
I242
sI131
I212
sI132
I285
sI534
I294
sI134
I59
sI138
I122
sI141
I320
sI577
I272
sI144
I53
sI145
I271
sI451
I282
sI148
I67
sI149
I48
sI151
I31
sI153
I1
sI155
I115
sI156
I75
sI157
I151
sI158
I154
sI159
I255
sI160
I140
sI161
I319
sI602
I273
sI290
I290
sI166
I287
sI169
I288
sI171
I107
sI172
I228
sI173
I227
sI609
I305
sI178
I10
sI179
I85
sI180
I317
sI186
I244
sI189
I204
sI190
I50
sI191
I172
sI544
I237
sI194
I207
sI195
I35
sI196
I157
sI200
I134
sI201
I123
sI202
I211
sI606
I235
sI205
I127
sI207
I245
sI209
I118
sI212
I197
sI214
I292
sI7
I220
sI218
I238
sI219
I47
sI222
I116
sI604
I259
sI225
I205
sI227
I281
sI228
I279
sI90
I313
sI230
I173
sI231
I295
sI233
I131
sI234
I92
sI127
I280
sI236
I149
sI237
I41
sI238
I306
sI241
I246
sI243
I303
sI244
I141
sI245
I239
sI249
I101
sI250
I120
sI251
I138
sI252
I277
sI554
I181
sI255
I156
sI257
I250
sI259
I258
sI260
I174
sI263
I222
sI264
I264
sI265
I266
sI269
I110
sI421
I269
sI216
I261
sI275
I221
sI276
I76
sI537
I209
sI280
I2
sI281
I133
sI284
I164
sI286
I84
sI288
I7
sI289
I90
sI538
I196
sI291
I267
sI294
I60
sI561
I146
sI297
I180
sI298
I274
sI299
I158
sI300
I3
sI301
I232
sI305
I93
sI306
I9
sI307
I200
sI607
I187
sI315
I135
sI317
I249
sI565
I169
sI322
I175
sI323
I63
sI324
I8
sI325
I112
sI481
I299
sI328
I106
sI96
I225
sI331
I124
sI335
I143
sI568
I254
sI339
I307
sI340
I17
sI342
I166
sI343
I137
sI345
I168
sI346
I109
sI347
I129
sI350
I275
sI351
I119
sI352
I198
sI354
I49
sI355
I300
sI356
I233
sI9
I310
sI3
I323
sI361
I159
sI362
I55
sI365
I270
sI368
I184
sI370
I217
sI372
I199
sI574
I315
sI375
I114
sI377
I71
sI378
I312
sI379
I176
sI382
I13
sI384
I96
sI386
I322
sI387
I171
sI389
I260
sI391
I251
sI396
I224
sI397
I88
sI579
I291
sI404
I94
sI405
I265
sI406
I81
sI407
I296
sI408
I74
sI409
I165
sI410
I240
sI411
I309
sI414
I283
sI581
I136
sI417
I86
sI420
I77
sI582
I262
sI422
I102
sI424
I87
sI426
I22
sI427
I145
sI428
I121
sI429
I311
sI433
I148
sI270
I286
sI435
I0
sI436
I226
sI437
I216
sI438
I195
sI439
I318
sI440
I321
sI415
I170
sI74
I247
sI448
I257
sI450
I223
sI75
I39
sI453
I37
sI456
I30
sI457
I188
sI459
I24
sI460
I153
sI463
I208
sI465
I177
sI467
I52
sI469
I162
sI203
I256
sI473
I183
sI475
I28
sI476
I43
sI477
I293
sI479
I82
sI480
I68
sI592
I56
sI482
I302
sI484
I192
sI485
I161
sI486
I268
sI487
I214
sI488
I32
sI489
I69
sI492
I105
sI494
I252
sI497
I26
sI498
I202
sI499
I231
sI503
I144
sI506
I66
sI510
I179
sI511
I89
s.